target datalayout = "e-m:e-p270:32:32-p271:32:32-p272:64:64-i64:64-i128:128-f80:128-n8:16:32:64-S128"
target triple = "x86_64-pc-linux-gnu"

%"class.zmq::msg_t" = type { %union.anon }
%union.anon = type { %struct.anon }
%struct.anon = type { ptr, [34 x i8], i8, i8, i32, %"union.zmq::msg_t::group_t" }
%"union.zmq::msg_t::group_t" = type { %struct.anon.1 }
%struct.anon.1 = type { i8, ptr }
%"class.zmq::pipe_t" = type { %"class.zmq::object_t.base", [4 x i8], %"class.zmq::array_item_t.base", [4 x i8], %"class.zmq::array_item_t.base.11", [4 x i8], %"class.zmq::array_item_t.base.13", ptr, ptr, i8, i8, i32, i32, i32, i32, i64, i64, i64, ptr, ptr, i32, i8, [3 x i8], %"struct.zmq::blob_t", i32, i8, [3 x i8], %"struct.zmq::endpoint_uri_pair_t", %"class.zmq::msg_t" }
%"class.zmq::object_t.base" = type <{ ptr, ptr, i32 }>
%"class.zmq::array_item_t.base" = type <{ ptr, i32 }>
%"class.zmq::array_item_t.base.11" = type <{ ptr, i32 }>
%"class.zmq::array_item_t.base.13" = type <{ ptr, i32 }>
%"struct.zmq::blob_t" = type <{ ptr, i64, i8, [7 x i8] }>
%"struct.zmq::endpoint_uri_pair_t" = type <{ %"class.std::__cxx11::basic_string", %"class.std::__cxx11::basic_string", i32, [4 x i8] }>
%"class.std::__cxx11::basic_string" = type { %"struct.std::__cxx11::basic_string<char>::_Alloc_hider", i64, %union.anon.14 }
%"struct.std::__cxx11::basic_string<char>::_Alloc_hider" = type { ptr }
%union.anon.14 = type { i64, [8 x i8] }

@stderr = external global ptr, align 8
@.str.1 = private unnamed_addr constant [104 x i8] c"generated/home/dtcxzyw/WorkSpace/Projects/compilers/llvm-opt-benchmark/bench/libzmq/libzmq/src/pipe.cpp\00", align 1
@.str.3 = private unnamed_addr constant [12 x i8] c"%s (%s:%d)\0A\00", align 1
@.str.4 = private unnamed_addr constant [30 x i8] c"Assertion failed: %s (%s:%d)\0A\00", align 1
@.str.10 = private unnamed_addr constant [27 x i8] c"msg.flags () & msg_t::more\00", align 1

; Function Attrs: mustprogress uwtable
define void @_ZNK3zmq6pipe_t8rollbackEv(ptr noundef nonnull align 8 dereferenceable(328) %0) #0 align 2 {
  %2 = alloca ptr, align 8
  %3 = alloca %"class.zmq::msg_t", align 8
  %4 = alloca i32, align 4
  %5 = alloca ptr, align 8
  store ptr %0, ptr %2, align 8, !tbaa !27
  %6 = load ptr, ptr %2, align 8
  call void @llvm.lifetime.start.p0(i64 64, ptr %3) #17
  %7 = getelementptr inbounds nuw %"class.zmq::pipe_t", ptr %6, i32 0, i32 8
  %8 = load ptr, ptr %7, align 8, !tbaa !108
  %9 = icmp ne ptr %8, null
  br i1 %9, label %10, label %58

10:                                               ; preds = %1
  br label %11

11:                                               ; preds = %56, %10
  %12 = getelementptr inbounds nuw %"class.zmq::pipe_t", ptr %6, i32 0, i32 8
  %13 = load ptr, ptr %12, align 8, !tbaa !108
  %14 = load ptr, ptr %13, align 8, !tbaa !31
  %15 = getelementptr inbounds ptr, ptr %14, i64 3
  %16 = load ptr, ptr %15, align 8
  %17 = call noundef zeroext i1 %16(ptr noundef nonnull align 8 dereferenceable(8) %13, ptr noundef %3)
  br i1 %17, label %18, label %57

18:                                               ; preds = %11
  br label %19

19:                                               ; preds = %18
  %20 = call noundef zeroext i8 @_ZNK3zmq5msg_t5flagsEv(ptr noundef nonnull align 8 dereferenceable(64) %3)
  %21 = zext i8 %20 to i32
  %22 = and i32 %21, 1
  %23 = icmp ne i32 %22, 0
  %24 = xor i1 %23, true
  %25 = zext i1 %24 to i64
  %26 = call i64 @llvm.expect.i64(i64 %25, i64 0)
  %27 = icmp ne i64 %26, 0
  br i1 %27, label %28, label %33

28:                                               ; preds = %19
  %29 = load ptr, ptr @stderr, align 8, !tbaa !21
  %30 = call i32 (ptr, ptr, ...) @fprintf(ptr noundef %29, ptr noundef @.str.4, ptr noundef @.str.10, ptr noundef @.str.1, i32 noundef 242) #17
  %31 = load ptr, ptr @stderr, align 8, !tbaa !21
  %32 = call i32 @fflush(ptr noundef %31)
  call void @_ZN3zmq9zmq_abortEPKc(ptr noundef @.str.10)
  br label %33

33:                                               ; preds = %28, %19
  br label %34

34:                                               ; preds = %33
  br label %35

35:                                               ; preds = %34
  call void @llvm.lifetime.start.p0(i64 4, ptr %4) #17
  %36 = call noundef i32 @_ZN3zmq5msg_t5closeEv(ptr noundef nonnull align 8 dereferenceable(64) %3)
  store i32 %36, ptr %4, align 4, !tbaa !25
  br label %37

37:                                               ; preds = %35
  %38 = load i32, ptr %4, align 4, !tbaa !25
  %39 = icmp eq i32 %38, 0
  %40 = xor i1 %39, true
  %41 = zext i1 %40 to i64
  %42 = call i64 @llvm.expect.i64(i64 %41, i64 0)
  %43 = icmp ne i64 %42, 0
  br i1 %43, label %44, label %54

44:                                               ; preds = %37
  call void @llvm.lifetime.start.p0(i64 8, ptr %5) #17
  %45 = call ptr @__errno_location() #20
  %46 = load i32, ptr %45, align 4, !tbaa !25
  %47 = call ptr @strerror(i32 noundef %46) #17
  store ptr %47, ptr %5, align 8, !tbaa !106
  %48 = load ptr, ptr @stderr, align 8, !tbaa !21
  %49 = load ptr, ptr %5, align 8, !tbaa !106
  %50 = call i32 (ptr, ptr, ...) @fprintf(ptr noundef %48, ptr noundef @.str.3, ptr noundef %49, ptr noundef @.str.1, i32 noundef 244) #17
  %51 = load ptr, ptr @stderr, align 8, !tbaa !21
  %52 = call i32 @fflush(ptr noundef %51)
  %53 = load ptr, ptr %5, align 8, !tbaa !106
  call void @_ZN3zmq9zmq_abortEPKc(ptr noundef %53)
  call void @llvm.lifetime.end.p0(i64 8, ptr %5) #17
  br label %54

54:                                               ; preds = %44, %37
  br label %55

55:                                               ; preds = %54
  br label %56

56:                                               ; preds = %55
  call void @llvm.lifetime.end.p0(i64 4, ptr %4) #17
  br label %11, !llvm.loop !149

57:                                               ; preds = %11
  br label %58

58:                                               ; preds = %57, %1
  call void @llvm.lifetime.end.p0(i64 64, ptr %3) #17
  ret void
}