; Function Attrs: mustprogress uwtable
define void @_ZNK3zmq6pipe_t8rollbackEv(ptr noundef nonnull readonly align 8 captures(none) dereferenceable(328) %0) local_unnamed_addr #0 align 2 {
  %2 = alloca %"class.zmq::msg_t", align 8
  call void @llvm.lifetime.start.p0(i64 64, ptr nonnull %2) #25
  %3 = getelementptr inbounds nuw i8, ptr %0, i64 80
  %4 = load ptr, ptr %3, align 8, !tbaa !103
  %.not = icmp eq ptr %4, null
  br i1 %.not, label %.loopexit, label %.preheader

.preheader:                                       ; preds = %1
  %5 = load ptr, ptr %4, align 8, !tbaa !9
  %6 = getelementptr inbounds nuw i8, ptr %5, i64 24
  %7 = load ptr, ptr %6, align 8
  %8 = call noundef zeroext i1 %7(ptr noundef nonnull align 8 dereferenceable(8) %4, ptr noundef nonnull %2)
  br i1 %8, label %.lr.ph, label %.loopexit

.lr.ph:                                           ; preds = %.preheader, %26
  %9 = call noundef zeroext i8 @_ZNK3zmq5msg_t5flagsEv(ptr noundef nonnull align 8 dereferenceable(64) %2)
  %10 = and i8 %9, 1
  %.not3 = icmp eq i8 %10, 0
  br i1 %.not3, label %11, label %16, !prof !54

11:                                               ; preds = %.lr.ph
  %12 = load ptr, ptr @stderr, align 8, !tbaa !21
  %13 = call i32 (ptr, ptr, ...) @fprintf(ptr noundef %12, ptr noundef nonnull @.str.4, ptr noundef nonnull @.str.10, ptr noundef nonnull @.str.1, i32 noundef 242) #26
  %14 = load ptr, ptr @stderr, align 8, !tbaa !21
  %15 = call i32 @fflush(ptr noundef %14)
  call void @_ZN3zmq9zmq_abortEPKc(ptr noundef nonnull @.str.10)
  br label %16

16:                                               ; preds = %11, %.lr.ph
  %17 = call noundef i32 @_ZN3zmq5msg_t5closeEv(ptr noundef nonnull align 8 dereferenceable(64) %2)
  %.not4 = icmp eq i32 %17, 0
  br i1 %.not4, label %26, label %18, !prof !47

18:                                               ; preds = %16
  %19 = tail call ptr @__errno_location() #28
  %20 = load i32, ptr %19, align 4, !tbaa !25
  %21 = call ptr @strerror(i32 noundef %20) #25
  %22 = load ptr, ptr @stderr, align 8, !tbaa !21
  %23 = call i32 (ptr, ptr, ...) @fprintf(ptr noundef %22, ptr noundef nonnull @.str.3, ptr noundef %21, ptr noundef nonnull @.str.1, i32 noundef 244) #26
  %24 = load ptr, ptr @stderr, align 8, !tbaa !21
  %25 = call i32 @fflush(ptr noundef %24)
  call void @_ZN3zmq9zmq_abortEPKc(ptr noundef %21)
  br label %26

26:                                               ; preds = %18, %16
  %27 = load ptr, ptr %3, align 8, !tbaa !103
  %28 = load ptr, ptr %27, align 8, !tbaa !9
  %29 = getelementptr inbounds nuw i8, ptr %28, i64 24
  %30 = load ptr, ptr %29, align 8
  %31 = call noundef zeroext i1 %30(ptr noundef nonnull align 8 dereferenceable(8) %27, ptr noundef nonnull %2)
  br i1 %31, label %.lr.ph, label %.loopexit, !llvm.loop !131

.loopexit:                                        ; preds = %26, %.preheader, %1
  call void @llvm.lifetime.end.p0(i64 64, ptr nonnull %2) #25
  ret void
}